; Function Attrs: mustprogress uwtable
define noundef ptr @ggml_backend_graph_plan_create(ptr noundef %0, ptr noundef %1) local_unnamed_addr #0 {
  %3 = getelementptr inbounds nuw i8, ptr %0, i64 56
  %4 = load ptr, ptr %3, align 8, !tbaa !67
  %.not = icmp eq ptr %4, null
  br i1 %.not, label %5, label %6

5:                                                ; preds = %2
  tail call void (ptr, i32, ptr, ...) @ggml_abort(ptr noundef nonnull @.str, i32 noundef 308, ptr noundef nonnull @.str.1, ptr noundef nonnull @.str.10) #24
  unreachable

6:                                                ; preds = %2
  %7 = tail call noundef ptr %4(ptr noundef nonnull %0, ptr noundef %1)
  ret ptr %7
}